target datalayout = "e-m:e-p270:32:32-p271:32:32-p272:64:64-i64:64-i128:128-f80:128-n8:16:32:64-S128"
target triple = "x86_64-pc-linux-gnu"

%class.QFlags = type { i32 }
%class.QSizePolicy = type { %union.anon.0 }
%union.anon.0 = type { %"struct.QSizePolicy::Bits" }
%"struct.QSizePolicy::Bits" = type { i32 }

; Function Attrs: alwaysinline mustprogress nounwind null_pointer_is_valid sspstrong uwtable
define linkonce_odr noundef i32 @_ZN18QAlgorithmsPrivate14qt_builtin_ctzEj(i32 noundef %0) #9 comdat {
  %2 = alloca i32, align 4
  store i32 %0, ptr %2, align 4
  %3 = load i32, ptr %2, align 4
  %4 = call i32 @llvm.cttz.i32(i32 %3, i1 true)
  ret i32 %4
}

; Function Attrs: inlinehint mustprogress nounwind null_pointer_is_valid sspstrong uwtable
define linkonce_odr noundef i32 @_Z22qCountTrailingZeroBitsj(i32 noundef %0) #1 comdat {
  %2 = alloca i32, align 4
  store i32 %0, ptr %2, align 4
  %3 = load i32, ptr %2, align 4
  %4 = icmp ne i32 %3, 0
  br i1 %4, label %5, label %8

5:                                                ; preds = %1
  %6 = load i32, ptr %2, align 4
  %7 = call noundef i32 @_ZN18QAlgorithmsPrivate14qt_builtin_ctzEj(i32 noundef %6) #11
  br label %9

8:                                                ; preds = %1
  br label %9

9:                                                ; preds = %8, %5
  %10 = phi i32 [ %7, %5 ], [ 32, %8 ]
  ret i32 %10
}

; Function Attrs: mustprogress nounwind null_pointer_is_valid sspstrong uwtable
define linkonce_odr noundef i32 @_ZN11QSizePolicy23toControlTypeFieldValueENS_11ControlTypeE(i32 noundef %0) #5 comdat align 2 {
  %2 = alloca i32, align 4
  store i32 %0, ptr %2, align 4
  %3 = load i32, ptr %2, align 4
  %4 = call noundef i32 @_Z22qCountTrailingZeroBitsj(i32 noundef %3) #11
  ret i32 %4
}

; Function Attrs: mustprogress nounwind null_pointer_is_valid sspstrong uwtable
define linkonce_odr void @_ZN11QSizePolicyC2ENS_6PolicyES0_NS_11ControlTypeE(ptr noundef align 4 dereferenceable_or_null(4) %0, i32 noundef %1, i32 noundef %2, i32 noundef %3) unnamed_addr #5 comdat align 2 {
  %5 = alloca ptr, align 8
  %6 = alloca i32, align 4
  %7 = alloca i32, align 4
  %8 = alloca i32, align 4
  store ptr %0, ptr %5, align 8
  store i32 %1, ptr %6, align 4
  store i32 %2, ptr %7, align 4
  store i32 %3, ptr %8, align 4
  %9 = load ptr, ptr %5, align 8
  %10 = getelementptr inbounds nuw %class.QSizePolicy, ptr %9, i32 0, i32 0
  %11 = load i32, ptr %10, align 4
  %12 = and i32 %11, -256
  %13 = or i32 %12, 0
  store i32 %13, ptr %10, align 4
  %14 = load i32, ptr %10, align 4
  %15 = and i32 %14, -65281
  %16 = or i32 %15, 0
  store i32 %16, ptr %10, align 4
  %17 = load i32, ptr %6, align 4
  %18 = load i32, ptr %10, align 4
  %19 = and i32 %17, 15
  %20 = shl i32 %19, 16
  %21 = and i32 %18, -983041
  %22 = or i32 %21, %20
  store i32 %22, ptr %10, align 4
  %23 = load i32, ptr %7, align 4
  %24 = load i32, ptr %10, align 4
  %25 = and i32 %23, 15
  %26 = shl i32 %25, 20
  %27 = and i32 %24, -15728641
  %28 = or i32 %27, %26
  store i32 %28, ptr %10, align 4
  %29 = load i32, ptr %8, align 4
  %30 = icmp eq i32 %29, 1
  br i1 %30, label %31, label %32

31:                                               ; preds = %4
  br label %35

32:                                               ; preds = %4
  %33 = load i32, ptr %8, align 4
  %34 = call noundef i32 @_ZN11QSizePolicy23toControlTypeFieldValueENS_11ControlTypeE(i32 noundef %33) #11
  br label %35

35:                                               ; preds = %32, %31
  %36 = phi i32 [ 0, %31 ], [ %34, %32 ]
  %37 = load i32, ptr %10, align 4
  %38 = and i32 %36, 31
  %39 = shl i32 %38, 24
  %40 = and i32 %37, -520093697
  %41 = or i32 %40, %39
  store i32 %41, ptr %10, align 4
  %42 = load i32, ptr %10, align 4
  %43 = and i32 %42, -536870913
  %44 = or i32 %43, 0
  store i32 %44, ptr %10, align 4
  %45 = load i32, ptr %10, align 4
  %46 = and i32 %45, -1073741825
  %47 = or i32 %46, 0
  store i32 %47, ptr %10, align 4
  %48 = load i32, ptr %10, align 4
  %49 = and i32 %48, 2147483647
  %50 = or i32 %49, 0
  store i32 %50, ptr %10, align 4
  ret void
}

; Function Attrs: inlinehint mustprogress null_pointer_is_valid sspstrong uwtable
define linkonce_odr void @_ZN7QWidget13setSizePolicyEN11QSizePolicy6PolicyES1_(ptr noundef align 8 dereferenceable_or_null(40) %0, i32 noundef %1, i32 noundef %2) #3 comdat align 2 {
  %4 = alloca ptr, align 8
  %5 = alloca i32, align 4
  %6 = alloca i32, align 4
  %7 = alloca %class.QSizePolicy, align 4
  store ptr %0, ptr %4, align 8
  store i32 %1, ptr %5, align 4
  store i32 %2, ptr %6, align 4
  %8 = load ptr, ptr %4, align 8
  %9 = load i32, ptr %5, align 4
  %10 = load i32, ptr %6, align 4
  call void @_ZN11QSizePolicyC2ENS_6PolicyES0_NS_11ControlTypeE(ptr noundef align 4 dereferenceable_or_null(4) %7, i32 noundef %9, i32 noundef %10, i32 noundef 1) #11
  %11 = getelementptr inbounds nuw %class.QSizePolicy, ptr %7, i32 0, i32 0
  %12 = getelementptr inbounds nuw %union.anon.0, ptr %11, i32 0, i32 0
  %13 = getelementptr inbounds nuw %"struct.QSizePolicy::Bits", ptr %12, i32 0, i32 0
  %14 = load i32, ptr %13, align 4
  call void @_ZN7QWidget13setSizePolicyE11QSizePolicy(ptr noundef align 8 dereferenceable_or_null(40) %8, i32 %14)
  ret void
}

; Function Attrs: inlinehint mustprogress nounwind null_pointer_is_valid sspstrong uwtable
define linkonce_odr void @_ZN6QFlagsIN2Qt10WindowTypeEEC2Ev(ptr noundef align 4 dereferenceable_or_null(4) %0) unnamed_addr #1 comdat align 2 {
  %2 = alloca ptr, align 8
  store ptr %0, ptr %2, align 8
  %3 = load ptr, ptr %2, align 8
  %4 = getelementptr inbounds nuw %class.QFlags, ptr %3, i32 0, i32 0
  store i32 0, ptr %4, align 4
  ret void
}

; Function Attrs: mustprogress null_pointer_is_valid sspstrong uwtable
define void @_ZN9DragLabelC2E7QStringP7QWidget(ptr noundef align 8 dereferenceable_or_null(40) %0, ptr noundef %1, ptr noundef %2) unnamed_addr #0 align 2 personality ptr @__gxx_personality_v0 {
  %4 = alloca ptr, align 8
  %5 = alloca ptr, align 8
  %6 = alloca ptr, align 8
  %7 = alloca %class.QFlags, align 4
  %8 = alloca ptr, align 8
  %9 = alloca i32, align 4
  store ptr %0, ptr %4, align 8
  store ptr %1, ptr %5, align 8
  store ptr %2, ptr %6, align 8
  %10 = load ptr, ptr %4, align 8
  %11 = load ptr, ptr %6, align 8
  call void @_ZN6QFlagsIN2Qt10WindowTypeEEC2Ev(ptr noundef align 4 dereferenceable_or_null(4) %7) #11
  %12 = getelementptr inbounds nuw %class.QFlags, ptr %7, i32 0, i32 0
  %13 = load i32, ptr %12, align 4
  call void @_ZN6QLabelC2ERK7QStringP7QWidget6QFlagsIN2Qt10WindowTypeEE(ptr noundef align 8 dereferenceable_or_null(40) %10, ptr noundef align 8 dereferenceable(24) %1, ptr noundef %11, i32 %13)
  store ptr getelementptr inbounds inrange(-16, 424) ({ [55 x ptr], [10 x ptr] }, ptr @_ZTV9DragLabel, i32 0, i32 0, i32 2), ptr %10, align 8
  %14 = getelementptr inbounds i8, ptr %10, i64 16
  store ptr getelementptr inbounds inrange(-16, 64) ({ [55 x ptr], [10 x ptr] }, ptr @_ZTV9DragLabel, i32 0, i32 1, i32 2), ptr %14, align 8
  invoke void @_ZN7QWidget21setAutoFillBackgroundEb(ptr noundef align 8 dereferenceable_or_null(40) %10, i1 noundef zeroext true)
          to label %15 unwind label %21

15:                                               ; preds = %3
  invoke void @_ZN6QFrame13setFrameShapeENS_5ShapeE(ptr noundef align 8 dereferenceable_or_null(40) %10, i32 noundef 2)
          to label %16 unwind label %21

16:                                               ; preds = %15
  invoke void @_ZN6QFrame14setFrameShadowENS_6ShadowE(ptr noundef align 8 dereferenceable_or_null(40) %10, i32 noundef 32)
          to label %17 unwind label %21

17:                                               ; preds = %16
  invoke void @_ZN7QWidget12setAttributeEN2Qt15WidgetAttributeEb(ptr noundef align 8 dereferenceable_or_null(40) %10, i32 noundef 55, i1 noundef zeroext true)
          to label %18 unwind label %21

18:                                               ; preds = %17
  invoke void @_ZN7QWidget13setSizePolicyEN11QSizePolicy6PolicyES1_(ptr noundef align 8 dereferenceable_or_null(40) %10, i32 noundef 3, i32 noundef 3)
          to label %19 unwind label %21

19:                                               ; preds = %18
  invoke void @_ZN7QWidget10adjustSizeEv(ptr noundef align 8 dereferenceable_or_null(40) %10)
          to label %20 unwind label %21

20:                                               ; preds = %19
  ret void

21:                                               ; preds = %19, %18, %17, %16, %15, %3
  %22 = landingpad { ptr, i32 }
          cleanup
  %23 = extractvalue { ptr, i32 } %22, 0
  store ptr %23, ptr %8, align 8
  %24 = extractvalue { ptr, i32 } %22, 1
  store i32 %24, ptr %9, align 4
  call void @_ZN6QLabelD2Ev(ptr noundef align 8 dereferenceable_or_null(40) %10) #11
  br label %25

25:                                               ; preds = %21
  %26 = load ptr, ptr %8, align 8
  %27 = load i32, ptr %9, align 4
  %28 = insertvalue { ptr, i32 } poison, ptr %26, 0
  %29 = insertvalue { ptr, i32 } %28, i32 %27, 1
  resume { ptr, i32 } %29
}