; Function Attrs: mustprogress null_pointer_is_valid sspstrong uwtable
define void @_ZN9DragLabelC2E7QStringP7QWidget(ptr noundef align 8 dereferenceable_or_null(40) %0, ptr noundef %1, ptr noundef %2) unnamed_addr #0 align 2 personality ptr @__gxx_personality_v0 {
  tail call void @_ZN6QLabelC2ERK7QStringP7QWidget6QFlagsIN2Qt10WindowTypeEE(ptr noundef align 8 dereferenceable_or_null(40) %0, ptr noundef align 8 dereferenceable(24) %1, ptr noundef %2, i32 0)
  store ptr getelementptr inbounds nuw inrange(-16, 424) (i8, ptr @_ZTV9DragLabel, i64 16), ptr %0, align 8
  %4 = getelementptr inbounds nuw i8, ptr %0, i64 16
  store ptr getelementptr inbounds nuw inrange(-16, 64) (i8, ptr @_ZTV9DragLabel, i64 456), ptr %4, align 8
  invoke void @_ZN7QWidget21setAutoFillBackgroundEb(ptr noundef align 8 dereferenceable_or_null(40) %0, i1 noundef zeroext true)
          to label %5 unwind label %10

5:                                                ; preds = %3
  invoke void @_ZN6QFrame13setFrameShapeENS_5ShapeE(ptr noundef align 8 dereferenceable_or_null(40) %0, i32 noundef 2)
          to label %6 unwind label %10

6:                                                ; preds = %5
  invoke void @_ZN6QFrame14setFrameShadowENS_6ShadowE(ptr noundef align 8 dereferenceable_or_null(40) %0, i32 noundef 32)
          to label %7 unwind label %10

7:                                                ; preds = %6
  invoke void @_ZN7QWidget12setAttributeEN2Qt15WidgetAttributeEb(ptr noundef align 8 dereferenceable_or_null(40) %0, i32 noundef 55, i1 noundef zeroext true)
          to label %8 unwind label %10

8:                                                ; preds = %7
  invoke void @_ZN7QWidget13setSizePolicyE11QSizePolicy(ptr noundef align 8 dereferenceable_or_null(40) %0, i32 3342336)
          to label %_ZN7QWidget13setSizePolicyEN11QSizePolicy6PolicyES1_.exit unwind label %10

_ZN7QWidget13setSizePolicyEN11QSizePolicy6PolicyES1_.exit: ; preds = %8
  invoke void @_ZN7QWidget10adjustSizeEv(ptr noundef align 8 dereferenceable_or_null(40) %0)
          to label %9 unwind label %10

9:                                                ; preds = %_ZN7QWidget13setSizePolicyEN11QSizePolicy6PolicyES1_.exit
  ret void

10:                                               ; preds = %8, %_ZN7QWidget13setSizePolicyEN11QSizePolicy6PolicyES1_.exit, %7, %6, %5, %3
  %11 = landingpad { ptr, i32 }
          cleanup
  tail call void @_ZN6QLabelD2Ev(ptr noundef align 8 dereferenceable_or_null(40) %0) #6
  resume { ptr, i32 } %11
}